target datalayout = "e-m:e-p270:32:32-p271:32:32-p272:64:64-i64:64-i128:128-f80:128-n8:16:32:64-S128"
target triple = "x86_64-pc-linux-gnu"

%struct.libpq_source = type { %struct.rewind_source, ptr, i32, [1000 x %struct.fetch_range_request], %struct.StringInfoData, %struct.StringInfoData, %struct.StringInfoData }
%struct.rewind_source = type { ptr, ptr, ptr, ptr, ptr, ptr, ptr }
%struct.fetch_range_request = type { ptr, i64, i64 }
%struct.StringInfoData = type { ptr, i32, i32, i32 }

@.str.16 = private unnamed_addr constant [35 x i8] c"SELECT pg_current_wal_insert_lsn()\00", align 1
@.str.17 = private unnamed_addr constant [6 x i8] c"%X/%X\00", align 1
@.str.18 = private unnamed_addr constant [57 x i8] c"unrecognized result \22%s\22 for current WAL insert location\00", align 1

; Function Attrs: nounwind uwtable
define internal i64 @libpq_get_current_wal_insert_lsn(ptr noundef %0) #0 {
  %2 = alloca ptr, align 8
  %3 = alloca ptr, align 8
  %4 = alloca i64, align 8
  %5 = alloca i32, align 4
  %6 = alloca i32, align 4
  %7 = alloca ptr, align 8
  store ptr %0, ptr %2, align 8
  call void @llvm.lifetime.start.p0(i64 8, ptr %3) #10
  %8 = load ptr, ptr %2, align 8
  %9 = getelementptr inbounds nuw %struct.libpq_source, ptr %8, i32 0, i32 1
  %10 = load ptr, ptr %9, align 8
  store ptr %10, ptr %3, align 8
  call void @llvm.lifetime.start.p0(i64 8, ptr %4) #10
  call void @llvm.lifetime.start.p0(i64 4, ptr %5) #10
  call void @llvm.lifetime.start.p0(i64 4, ptr %6) #10
  call void @llvm.lifetime.start.p0(i64 8, ptr %7) #10
  %11 = load ptr, ptr %3, align 8
  %12 = call ptr @run_simple_query(ptr noundef %11, ptr noundef @.str.16)
  store ptr %12, ptr %7, align 8
  %13 = load ptr, ptr %7, align 8
  %14 = call i32 (ptr, ptr, ...) @__isoc99_sscanf(ptr noundef %13, ptr noundef @.str.17, ptr noundef %5, ptr noundef %6) #10
  %15 = icmp ne i32 %14, 2
  br i1 %15, label %16, label %21

16:                                               ; preds = %1
  br label %17

17:                                               ; preds = %16
  %18 = load ptr, ptr %7, align 8
  call void (i32, i32, ptr, ...) @pg_log_generic(i32 noundef 4, i32 noundef 0, ptr noundef @.str.18, ptr noundef %18)
  call void @exit(i32 noundef 1) #11
  unreachable

19:                                               ; No predecessors!
  br label %20

20:                                               ; preds = %19
  br label %21

21:                                               ; preds = %20, %1
  %22 = load i32, ptr %5, align 4
  %23 = zext i32 %22 to i64
  %24 = shl i64 %23, 32
  %25 = load i32, ptr %6, align 4
  %26 = zext i32 %25 to i64
  %27 = or i64 %24, %26
  store i64 %27, ptr %4, align 8
  %28 = load ptr, ptr %7, align 8
  call void @pg_free(ptr noundef %28)
  %29 = load i64, ptr %4, align 8
  call void @llvm.lifetime.end.p0(i64 8, ptr %7) #10
  call void @llvm.lifetime.end.p0(i64 4, ptr %6) #10
  call void @llvm.lifetime.end.p0(i64 4, ptr %5) #10
  call void @llvm.lifetime.end.p0(i64 8, ptr %4) #10
  call void @llvm.lifetime.end.p0(i64 8, ptr %3) #10
  ret i64 %29
}