; Function Attrs: nounwind uwtable
define internal i64 @libpq_get_current_wal_insert_lsn(ptr noundef readonly captures(none) %0) #0 {
  %2 = alloca i32, align 4
  %3 = alloca i32, align 4
  %4 = getelementptr inbounds nuw i8, ptr %0, i64 56
  %5 = load ptr, ptr %4, align 8
  call void @llvm.lifetime.start.p0(i64 4, ptr nonnull %2) #10
  call void @llvm.lifetime.start.p0(i64 4, ptr nonnull %3) #10
  %6 = tail call fastcc ptr @run_simple_query(ptr noundef %5, ptr noundef nonnull @.str.16)
  %7 = call i32 (ptr, ptr, ...) @__isoc99_sscanf(ptr noundef %6, ptr noundef nonnull @.str.17, ptr noundef nonnull %2, ptr noundef nonnull %3) #10
  %.not = icmp eq i32 %7, 2
  br i1 %.not, label %9, label %8

8:                                                ; preds = %1
  call void (i32, i32, ptr, ...) @pg_log_generic(i32 noundef 4, i32 noundef 0, ptr noundef nonnull @.str.18, ptr noundef %6) #10
  call void @exit(i32 noundef 1) #11
  unreachable

9:                                                ; preds = %1
  %10 = load i32, ptr %2, align 4
  %11 = zext i32 %10 to i64
  %12 = shl nuw i64 %11, 32
  %13 = load i32, ptr %3, align 4
  %14 = zext i32 %13 to i64
  %15 = or disjoint i64 %12, %14
  call void @pg_free(ptr noundef %6) #10
  call void @llvm.lifetime.end.p0(i64 4, ptr nonnull %3) #10
  call void @llvm.lifetime.end.p0(i64 4, ptr nonnull %2) #10
  ret i64 %15
}